; Function Attrs: mustprogress nofree norecurse nosync nounwind willreturn memory(argmem: readwrite) uwtable
define range(i32 0, 257) i32 @png_get_oFFs(ptr noalias noundef readnone %0, ptr noalias noundef readonly %1, ptr noundef writeonly %2, ptr noundef writeonly %3, ptr noundef writeonly %4) local_unnamed_addr #3 {
  %6 = icmp ne ptr %0, null
  %7 = icmp ne ptr %1, null
  %or.cond = and i1 %6, %7
  br i1 %or.cond, label %8, label %24

8:                                                ; preds = %5
  %9 = getelementptr inbounds i8, ptr %1, i64 8
  %10 = load i32, ptr %9, align 8
  %11 = and i32 %10, 256
  %12 = icmp ne i32 %11, 0
  %13 = icmp ne ptr %2, null
  %or.cond3 = and i1 %13, %12
  %14 = icmp ne ptr %3, null
  %or.cond5 = and i1 %14, %or.cond3
  %15 = icmp ne ptr %4, null
  %or.cond7 = and i1 %15, %or.cond5
  br i1 %or.cond7, label %16, label %24

16:                                               ; preds = %8
  %17 = getelementptr inbounds i8, ptr %1, i64 212
  %18 = load i32, ptr %17, align 4
  store i32 %18, ptr %2, align 4
  %19 = getelementptr inbounds i8, ptr %1, i64 216
  %20 = load i32, ptr %19, align 8
  store i32 %20, ptr %3, align 4
  %21 = getelementptr inbounds i8, ptr %1, i64 220
  %22 = load i8, ptr %21, align 4
  %23 = zext i8 %22 to i32
  store i32 %23, ptr %4, align 4
  br label %24

24:                                               ; preds = %5, %8, %16
  %.0 = phi i32 [ 256, %16 ], [ 0, %8 ], [ 0, %5 ]
  ret i32 %.0
}